target datalayout = "e-m:e-p270:32:32-p271:32:32-p272:64:64-i64:64-i128:128-f80:128-n8:16:32:64-S128"
target triple = "x86_64-pc-linux-gnu"

%struct._typeobject = type { %struct.PyVarObject, ptr, i64, i64, ptr, i64, ptr, ptr, ptr, ptr, ptr, ptr, ptr, ptr, ptr, ptr, ptr, ptr, ptr, i64, ptr, ptr, ptr, ptr, i64, ptr, ptr, ptr, ptr, ptr, ptr, ptr, ptr, ptr, i64, ptr, ptr, ptr, ptr, ptr, ptr, ptr, ptr, ptr, ptr, ptr, i32, ptr, ptr, i8, i16 }
%struct.PyVarObject = type { %struct._object, i64 }
%struct._object = type { %union.anon, ptr }
%union.anon = type { i64 }
%struct.PyNumberMethods = type { ptr, ptr, ptr, ptr, ptr, ptr, ptr, ptr, ptr, ptr, ptr, ptr, ptr, ptr, ptr, ptr, ptr, ptr, ptr, ptr, ptr, ptr, ptr, ptr, ptr, ptr, ptr, ptr, ptr, ptr, ptr, ptr, ptr, ptr, ptr, ptr }

@PyLong_Type = external global %struct._typeobject, align 8
@_Py_NoneStruct = external global %struct._object, align 8
@PyExc_AssertionError = external global ptr, align 8
@.str.29 = private unnamed_addr constant [25 x i8] c"mismatch: tp_new of long\00", align 1
@.str.30 = private unnamed_addr constant [26 x i8] c"mismatch: tp_repr of long\00", align 1
@.str.31 = private unnamed_addr constant [26 x i8] c"mismatch: tp_call of long\00", align 1
@.str.32 = private unnamed_addr constant [25 x i8] c"mismatch: nb_add of long\00", align 1
@.str.33 = private unnamed_addr constant [28 x i8] c"mismatch: mp_length of long\00", align 1
@.str.34 = private unnamed_addr constant [24 x i8] c"mismatch: max+1 of long\00", align 1
@.str.35 = private unnamed_addr constant [25 x i8] c"mismatch: slot 0 of long\00", align 1
@PyExc_SystemError = external global ptr, align 8

; Function Attrs: nounwind uwtable
define internal ptr @test_get_statictype_slots(ptr noundef %0, ptr noundef %1) #0 {
  %3 = alloca ptr, align 8
  %4 = alloca ptr, align 8
  %5 = alloca ptr, align 8
  %6 = alloca ptr, align 8
  %7 = alloca i32, align 4
  %8 = alloca ptr, align 8
  %9 = alloca ptr, align 8
  %10 = alloca ptr, align 8
  %11 = alloca ptr, align 8
  %12 = alloca ptr, align 8
  store ptr %0, ptr %4, align 8, !tbaa !3
  store ptr %1, ptr %5, align 8, !tbaa !3
  call void @llvm.lifetime.start.p0(i64 8, ptr %6) #7
  %13 = call ptr @PyType_GetSlot(ptr noundef @PyLong_Type, i32 noundef 65)
  store ptr %13, ptr %6, align 8, !tbaa !8
  %14 = load ptr, ptr getelementptr inbounds nuw (%struct._typeobject, ptr @PyLong_Type, i32 0, i32 37), align 8, !tbaa !9
  %15 = load ptr, ptr %6, align 8, !tbaa !8
  %16 = icmp ne ptr %14, %15
  br i1 %16, label %17, label %19

17:                                               ; preds = %2
  %18 = load ptr, ptr @PyExc_AssertionError, align 8, !tbaa !3
  call void @PyErr_SetString(ptr noundef %18, ptr noundef @.str.29)
  store ptr null, ptr %3, align 8
  store i32 1, ptr %7, align 4
  br label %71

19:                                               ; preds = %2
  call void @llvm.lifetime.start.p0(i64 8, ptr %8) #7
  %20 = call ptr @PyType_GetSlot(ptr noundef @PyLong_Type, i32 noundef 66)
  store ptr %20, ptr %8, align 8, !tbaa !8
  %21 = load ptr, ptr getelementptr inbounds nuw (%struct._typeobject, ptr @PyLong_Type, i32 0, i32 9), align 8, !tbaa !21
  %22 = load ptr, ptr %8, align 8, !tbaa !8
  %23 = icmp ne ptr %21, %22
  br i1 %23, label %24, label %26

24:                                               ; preds = %19
  %25 = load ptr, ptr @PyExc_AssertionError, align 8, !tbaa !3
  call void @PyErr_SetString(ptr noundef %25, ptr noundef @.str.30)
  store ptr null, ptr %3, align 8
  store i32 1, ptr %7, align 4
  br label %70

26:                                               ; preds = %19
  call void @llvm.lifetime.start.p0(i64 8, ptr %9) #7
  %27 = call ptr @PyType_GetSlot(ptr noundef @PyLong_Type, i32 noundef 50)
  store ptr %27, ptr %9, align 8, !tbaa !8
  %28 = load ptr, ptr %9, align 8, !tbaa !8
  %29 = icmp ne ptr %28, null
  br i1 %29, label %30, label %32

30:                                               ; preds = %26
  %31 = load ptr, ptr @PyExc_AssertionError, align 8, !tbaa !3
  call void @PyErr_SetString(ptr noundef %31, ptr noundef @.str.31)
  store ptr null, ptr %3, align 8
  store i32 1, ptr %7, align 4
  br label %69

32:                                               ; preds = %26
  call void @llvm.lifetime.start.p0(i64 8, ptr %10) #7
  %33 = call ptr @PyType_GetSlot(ptr noundef @PyLong_Type, i32 noundef 7)
  store ptr %33, ptr %10, align 8, !tbaa !8
  %34 = load ptr, ptr getelementptr inbounds nuw (%struct._typeobject, ptr @PyLong_Type, i32 0, i32 10), align 8, !tbaa !22
  %35 = getelementptr inbounds nuw %struct.PyNumberMethods, ptr %34, i32 0, i32 0
  %36 = load ptr, ptr %35, align 8, !tbaa !23
  %37 = load ptr, ptr %10, align 8, !tbaa !8
  %38 = icmp ne ptr %36, %37
  br i1 %38, label %39, label %41

39:                                               ; preds = %32
  %40 = load ptr, ptr @PyExc_AssertionError, align 8, !tbaa !3
  call void @PyErr_SetString(ptr noundef %40, ptr noundef @.str.32)
  store ptr null, ptr %3, align 8
  store i32 1, ptr %7, align 4
  br label %68

41:                                               ; preds = %32
  call void @llvm.lifetime.start.p0(i64 8, ptr %11) #7
  %42 = call ptr @PyType_GetSlot(ptr noundef @PyLong_Type, i32 noundef 4)
  store ptr %42, ptr %11, align 8, !tbaa !8
  %43 = load ptr, ptr %11, align 8, !tbaa !8
  %44 = icmp ne ptr %43, null
  br i1 %44, label %45, label %47

45:                                               ; preds = %41
  %46 = load ptr, ptr @PyExc_AssertionError, align 8, !tbaa !3
  call void @PyErr_SetString(ptr noundef %46, ptr noundef @.str.33)
  store ptr null, ptr %3, align 8
  store i32 1, ptr %7, align 4
  br label %67

47:                                               ; preds = %41
  call void @llvm.lifetime.start.p0(i64 8, ptr %12) #7
  %48 = call ptr @PyType_GetSlot(ptr noundef @PyLong_Type, i32 noundef 3)
  store ptr %48, ptr %12, align 8, !tbaa !8
  %49 = load ptr, ptr %12, align 8, !tbaa !8
  %50 = icmp ne ptr %49, null
  br i1 %50, label %51, label %53

51:                                               ; preds = %47
  %52 = load ptr, ptr @PyExc_AssertionError, align 8, !tbaa !3
  call void @PyErr_SetString(ptr noundef %52, ptr noundef @.str.34)
  store ptr null, ptr %3, align 8
  store i32 1, ptr %7, align 4
  br label %66

53:                                               ; preds = %47
  %54 = call ptr @PyType_GetSlot(ptr noundef @PyLong_Type, i32 noundef 0)
  store ptr %54, ptr %6, align 8, !tbaa !8
  %55 = load ptr, ptr %6, align 8, !tbaa !8
  %56 = icmp ne ptr %55, null
  br i1 %56, label %57, label %59

57:                                               ; preds = %53
  %58 = load ptr, ptr @PyExc_AssertionError, align 8, !tbaa !3
  call void @PyErr_SetString(ptr noundef %58, ptr noundef @.str.35)
  store ptr null, ptr %3, align 8
  store i32 1, ptr %7, align 4
  br label %66

59:                                               ; preds = %53
  %60 = load ptr, ptr @PyExc_SystemError, align 8, !tbaa !3
  %61 = call i32 @PyErr_ExceptionMatches(ptr noundef %60)
  %62 = icmp ne i32 %61, 0
  br i1 %62, label %63, label %64

63:                                               ; preds = %59
  call void @PyErr_Clear()
  br label %65

64:                                               ; preds = %59
  store ptr null, ptr %3, align 8
  store i32 1, ptr %7, align 4
  br label %66

65:                                               ; preds = %63
  store ptr @_Py_NoneStruct, ptr %3, align 8
  store i32 1, ptr %7, align 4
  br label %66

66:                                               ; preds = %65, %64, %57, %51
  call void @llvm.lifetime.end.p0(i64 8, ptr %12) #7
  br label %67

67:                                               ; preds = %66, %45
  call void @llvm.lifetime.end.p0(i64 8, ptr %11) #7
  br label %68

68:                                               ; preds = %67, %39
  call void @llvm.lifetime.end.p0(i64 8, ptr %10) #7
  br label %69

69:                                               ; preds = %68, %30
  call void @llvm.lifetime.end.p0(i64 8, ptr %9) #7
  br label %70

70:                                               ; preds = %69, %24
  call void @llvm.lifetime.end.p0(i64 8, ptr %8) #7
  br label %71

71:                                               ; preds = %70, %17
  call void @llvm.lifetime.end.p0(i64 8, ptr %6) #7
  %72 = load ptr, ptr %3, align 8
  ret ptr %72
}