; Function Attrs: nounwind uwtable
define internal noundef ptr @test_get_statictype_slots(ptr readnone captures(none) %0, ptr readnone captures(none) %1) #0 {
  %3 = tail call ptr @PyType_GetSlot(ptr noundef nonnull @PyLong_Type, i32 noundef 65) #3
  %4 = load ptr, ptr getelementptr inbounds nuw (i8, ptr @PyLong_Type, i64 312), align 8, !tbaa !21
  %.not = icmp eq ptr %4, %3
  br i1 %.not, label %7, label %5

5:                                                ; preds = %2
  %6 = load ptr, ptr @PyExc_AssertionError, align 8, !tbaa !22
  tail call void @PyErr_SetString(ptr noundef %6, ptr noundef nonnull @.str.29) #3
  br label %38

7:                                                ; preds = %2
  %8 = tail call ptr @PyType_GetSlot(ptr noundef nonnull @PyLong_Type, i32 noundef 66) #3
  %9 = load ptr, ptr getelementptr inbounds nuw (i8, ptr @PyLong_Type, i64 88), align 8, !tbaa !23
  %.not8 = icmp eq ptr %9, %8
  br i1 %.not8, label %12, label %10

10:                                               ; preds = %7
  %11 = load ptr, ptr @PyExc_AssertionError, align 8, !tbaa !22
  tail call void @PyErr_SetString(ptr noundef %11, ptr noundef nonnull @.str.30) #3
  br label %38

12:                                               ; preds = %7
  %13 = tail call ptr @PyType_GetSlot(ptr noundef nonnull @PyLong_Type, i32 noundef 50) #3
  %.not9 = icmp eq ptr %13, null
  br i1 %.not9, label %16, label %14

14:                                               ; preds = %12
  %15 = load ptr, ptr @PyExc_AssertionError, align 8, !tbaa !22
  tail call void @PyErr_SetString(ptr noundef %15, ptr noundef nonnull @.str.31) #3
  br label %38

16:                                               ; preds = %12
  %17 = tail call ptr @PyType_GetSlot(ptr noundef nonnull @PyLong_Type, i32 noundef 7) #3
  %18 = load ptr, ptr getelementptr inbounds nuw (i8, ptr @PyLong_Type, i64 96), align 8, !tbaa !24
  %19 = load ptr, ptr %18, align 8, !tbaa !25
  %.not10 = icmp eq ptr %19, %17
  br i1 %.not10, label %22, label %20

20:                                               ; preds = %16
  %21 = load ptr, ptr @PyExc_AssertionError, align 8, !tbaa !22
  tail call void @PyErr_SetString(ptr noundef %21, ptr noundef nonnull @.str.32) #3
  br label %38

22:                                               ; preds = %16
  %23 = tail call ptr @PyType_GetSlot(ptr noundef nonnull @PyLong_Type, i32 noundef 4) #3
  %.not11 = icmp eq ptr %23, null
  br i1 %.not11, label %26, label %24

24:                                               ; preds = %22
  %25 = load ptr, ptr @PyExc_AssertionError, align 8, !tbaa !22
  tail call void @PyErr_SetString(ptr noundef %25, ptr noundef nonnull @.str.33) #3
  br label %38

26:                                               ; preds = %22
  %27 = tail call ptr @PyType_GetSlot(ptr noundef nonnull @PyLong_Type, i32 noundef 3) #3
  %.not12 = icmp eq ptr %27, null
  br i1 %.not12, label %30, label %28

28:                                               ; preds = %26
  %29 = load ptr, ptr @PyExc_AssertionError, align 8, !tbaa !22
  tail call void @PyErr_SetString(ptr noundef %29, ptr noundef nonnull @.str.34) #3
  br label %38

30:                                               ; preds = %26
  %31 = tail call ptr @PyType_GetSlot(ptr noundef nonnull @PyLong_Type, i32 noundef 0) #3
  %.not13 = icmp eq ptr %31, null
  br i1 %.not13, label %34, label %32

32:                                               ; preds = %30
  %33 = load ptr, ptr @PyExc_AssertionError, align 8, !tbaa !22
  tail call void @PyErr_SetString(ptr noundef %33, ptr noundef nonnull @.str.35) #3
  br label %38

34:                                               ; preds = %30
  %35 = load ptr, ptr @PyExc_SystemError, align 8, !tbaa !22
  %36 = tail call i32 @PyErr_ExceptionMatches(ptr noundef %35) #3
  %.not14 = icmp eq i32 %36, 0
  br i1 %.not14, label %38, label %37

37:                                               ; preds = %34
  tail call void @PyErr_Clear() #3
  br label %38

38:                                               ; preds = %10, %20, %28, %32, %37, %34, %24, %14, %5
  %.0 = phi ptr [ null, %5 ], [ null, %10 ], [ null, %14 ], [ null, %20 ], [ null, %24 ], [ null, %28 ], [ null, %32 ], [ @_Py_NoneStruct, %37 ], [ null, %34 ]
  ret ptr %.0
}